; Function Attrs: nounwind uwtable
define ptr @l_Lean_registerInitAttrUnsafe(ptr noundef %0, i8 noundef zeroext %1, ptr noundef %2, ptr noundef %3) local_unnamed_addr #0 {
  %5 = load ptr, ptr @l_Lean_registerInitAttrUnsafe___closed__1, align 8, !tbaa !4
  tail call void @lean_inc_heartbeat() #5
  %6 = tail call noalias ptr @mi_malloc_small(i64 noundef 40) #5
  %7 = icmp eq ptr %6, null
  br i1 %7, label %8, label %lean_alloc_ctor.exit

8:                                                ; preds = %4
  tail call void @lean_internal_panic_out_of_memory() #6
  unreachable

lean_alloc_ctor.exit:                             ; preds = %4
  %9 = getelementptr inbounds nuw i8, ptr %6, i64 4
  %10 = getelementptr inbounds nuw i8, ptr %6, i64 32
  store i64 0, ptr %10, align 8, !tbaa !8
  store i32 1, ptr %6, align 4, !tbaa !10
  store i32 196648, ptr %9, align 4
  %11 = getelementptr inbounds nuw i8, ptr %6, i64 8
  store ptr %2, ptr %11, align 8, !tbaa !4
  %12 = getelementptr inbounds nuw i8, ptr %6, i64 16
  store ptr %0, ptr %12, align 8, !tbaa !4
  %13 = getelementptr inbounds nuw i8, ptr %6, i64 24
  store ptr %5, ptr %13, align 8, !tbaa !4
  tail call void @lean_inc_heartbeat() #5
  %14 = tail call noalias ptr @mi_malloc_small(i64 noundef 32) #5
  %15 = icmp eq ptr %14, null
  br i1 %15, label %16, label %lean_alloc_closure.exit

16:                                               ; preds = %lean_alloc_ctor.exit
  tail call void @lean_internal_panic_out_of_memory() #6
  unreachable

lean_alloc_closure.exit:                          ; preds = %lean_alloc_ctor.exit
  %17 = zext i8 %1 to i64
  %18 = shl nuw nsw i64 %17, 1
  %19 = or disjoint i64 %18, 1
  %20 = inttoptr i64 %19 to ptr
  %21 = getelementptr inbounds nuw i8, ptr %14, i64 4
  store i32 1, ptr %14, align 4, !tbaa !10
  store i32 -184549344, ptr %21, align 4
  %22 = getelementptr inbounds nuw i8, ptr %14, i64 8
  store ptr @l_Lean_registerInitAttrUnsafe___lambda__3___boxed, ptr %22, align 8, !tbaa !4
  %23 = getelementptr inbounds nuw i8, ptr %14, i64 16
  store i16 4, ptr %23, align 8, !tbaa !17
  %24 = getelementptr inbounds nuw i8, ptr %14, i64 18
  store i16 1, ptr %24, align 2, !tbaa !17
  %25 = getelementptr inbounds nuw i8, ptr %14, i64 24
  store ptr %20, ptr %25, align 8, !tbaa !4
  %26 = load ptr, ptr @l_Lean_registerInitAttrUnsafe___closed__2, align 8, !tbaa !4
  %27 = load ptr, ptr @l_Lean_registerInitAttrUnsafe___closed__3, align 8, !tbaa !4
  tail call void @lean_inc_heartbeat() #5
  %28 = tail call noalias ptr @mi_malloc_small(i64 noundef 40) #5
  %29 = icmp eq ptr %28, null
  br i1 %29, label %30, label %lean_alloc_ctor.exit21

30:                                               ; preds = %lean_alloc_closure.exit
  tail call void @lean_internal_panic_out_of_memory() #6
  unreachable

lean_alloc_ctor.exit21:                           ; preds = %lean_alloc_closure.exit
  %31 = getelementptr inbounds nuw i8, ptr %28, i64 4
  store i32 1, ptr %28, align 4, !tbaa !10
  store i32 262184, ptr %31, align 4
  %32 = getelementptr inbounds nuw i8, ptr %28, i64 8
  store ptr %6, ptr %32, align 8, !tbaa !4
  %33 = getelementptr inbounds nuw i8, ptr %28, i64 16
  store ptr %26, ptr %33, align 8, !tbaa !4
  %34 = getelementptr inbounds nuw i8, ptr %28, i64 24
  store ptr %27, ptr %34, align 8, !tbaa !4
  %35 = getelementptr inbounds nuw i8, ptr %28, i64 32
  store ptr %14, ptr %35, align 8, !tbaa !4
  %36 = tail call ptr @l_Lean_registerParametricAttribute___rarg(ptr noundef nonnull %28, ptr noundef %3) #5
  ret ptr %36
}